target datalayout = "e-m:e-p270:32:32-p271:32:32-p272:64:64-i64:64-i128:128-f80:128-n8:16:32:64-S128"
target triple = "x86_64-pc-linux-gnu"

%struct._archiveHandle = type { %struct.Archive, i32, ptr, ptr, i64, i64, i32, %struct.sqlparseInfo, i64, i32, ptr, i64, i64, i64, ptr, ptr, ptr, ptr, ptr, ptr, ptr, ptr, ptr, ptr, ptr, ptr, ptr, ptr, ptr, ptr, ptr, ptr, ptr, ptr, ptr, ptr, ptr, ptr, ptr, ptr, ptr, ptr, ptr, ptr, i32, i32, i8, i32, i8, i32, ptr, ptr, ptr, ptr, i32, i32, ptr, ptr, ptr, %struct.pg_compress_specification, i8, i32, i32, ptr, ptr, ptr, ptr, ptr, i32, ptr, i64, i64, i32, i32, i32, i32, ptr, ptr }
%struct.Archive = type { ptr, ptr, i32, ptr, i32, i8, i32, i32, i32, ptr, i32, i8, ptr, ptr, i8, i32, ptr }
%struct.sqlparseInfo = type { i32, i8, ptr }
%struct.pg_compress_specification = type { i32, i32, i32, i32, i8, ptr }
%struct.lclContext = type { i32, i64, ptr, ptr, i64, i64, ptr, i32, ptr }
%struct.TAR_MEMBER = type { ptr, ptr, ptr, ptr, i8, i64, i64, ptr }

@.str.30 = private unnamed_addr constant [35 x i8] c"could not write to output file: %m\00", align 1

; Function Attrs: nounwind uwtable
define internal i64 @tarWrite(ptr noundef %0, i64 noundef %1, ptr noundef %2) #0 {
  %4 = alloca ptr, align 8
  %5 = alloca i64, align 8
  %6 = alloca ptr, align 8
  %7 = alloca i64, align 8
  store ptr %0, ptr %4, align 8
  store i64 %1, ptr %5, align 8
  store ptr %2, ptr %6, align 8
  call void @llvm.lifetime.start.p0(i64 8, ptr %7) #12
  %8 = load ptr, ptr %4, align 8
  %9 = load i64, ptr %5, align 8
  %10 = load ptr, ptr %6, align 8
  %11 = getelementptr inbounds nuw %struct.TAR_MEMBER, ptr %10, i32 0, i32 0
  %12 = load ptr, ptr %11, align 8
  %13 = call i64 @fwrite(ptr noundef %8, i64 noundef 1, i64 noundef %9, ptr noundef %12)
  store i64 %13, ptr %7, align 8
  %14 = load i64, ptr %7, align 8
  %15 = load ptr, ptr %6, align 8
  %16 = getelementptr inbounds nuw %struct.TAR_MEMBER, ptr %15, i32 0, i32 5
  %17 = load i64, ptr %16, align 8
  %18 = add i64 %17, %14
  store i64 %18, ptr %16, align 8
  %19 = load i64, ptr %7, align 8
  call void @llvm.lifetime.end.p0(i64 8, ptr %7) #12
  ret i64 %19
}

; Function Attrs: nounwind uwtable
define internal i32 @_WriteByte(ptr noundef %0, i32 noundef %1) #0 {
  %3 = alloca ptr, align 8
  %4 = alloca i32, align 4
  %5 = alloca ptr, align 8
  %6 = alloca i8, align 1
  store ptr %0, ptr %3, align 8
  store i32 %1, ptr %4, align 4
  call void @llvm.lifetime.start.p0(i64 8, ptr %5) #12
  %7 = load ptr, ptr %3, align 8
  %8 = getelementptr inbounds nuw %struct._archiveHandle, ptr %7, i32 0, i32 63
  %9 = load ptr, ptr %8, align 8
  store ptr %9, ptr %5, align 8
  call void @llvm.lifetime.start.p0(i64 1, ptr %6) #12
  %10 = load i32, ptr %4, align 4
  %11 = trunc i32 %10 to i8
  store i8 %11, ptr %6, align 1
  %12 = load ptr, ptr %5, align 8
  %13 = getelementptr inbounds nuw %struct.lclContext, ptr %12, i32 0, i32 6
  %14 = load ptr, ptr %13, align 8
  %15 = call i64 @tarWrite(ptr noundef %6, i64 noundef 1, ptr noundef %14)
  %16 = icmp ne i64 %15, 1
  br i1 %16, label %17, label %24

17:                                               ; preds = %2
  br label %18

18:                                               ; preds = %17
  br label %19

19:                                               ; preds = %18
  call void (i32, i32, ptr, ...) @pg_log_generic(i32 noundef 4, i32 noundef 0, ptr noundef @.str.30)
  call void @exit_nicely(i32 noundef 1) #14
  unreachable

20:                                               ; No predecessors!
  br label %21

21:                                               ; preds = %20
  br label %22

22:                                               ; preds = %21
  br label %23

23:                                               ; preds = %22
  br label %24

24:                                               ; preds = %23, %2
  %25 = load ptr, ptr %5, align 8
  %26 = getelementptr inbounds nuw %struct.lclContext, ptr %25, i32 0, i32 1
  %27 = load i64, ptr %26, align 8
  %28 = add i64 %27, 1
  store i64 %28, ptr %26, align 8
  call void @llvm.lifetime.end.p0(i64 1, ptr %6) #12
  call void @llvm.lifetime.end.p0(i64 8, ptr %5) #12
  ret i32 1
}