; Function Attrs: nounwind uwtable
define internal noundef i32 @_WriteByte(ptr noundef readonly captures(none) %0, i32 noundef %1) #0 {
  %3 = alloca i8, align 1
  %4 = getelementptr inbounds nuw i8, ptr %0, i64 592
  %5 = load ptr, ptr %4, align 8
  call void @llvm.lifetime.start.p0(i64 1, ptr nonnull %3) #17
  %6 = trunc i32 %1 to i8
  store i8 %6, ptr %3, align 1
  %7 = getelementptr inbounds nuw i8, ptr %5, i64 48
  %8 = load ptr, ptr %7, align 8
  %9 = load ptr, ptr %8, align 8
  %10 = call noundef i64 @fwrite(ptr noundef nonnull %3, i64 noundef 1, i64 noundef 1, ptr noundef %9)
  %11 = getelementptr inbounds nuw i8, ptr %8, i64 40
  %12 = load i64, ptr %11, align 8
  %13 = add i64 %12, %10
  store i64 %13, ptr %11, align 8
  %.not = icmp eq i64 %10, 1
  br i1 %.not, label %15, label %14

14:                                               ; preds = %2
  tail call void (i32, i32, ptr, ...) @pg_log_generic(i32 noundef 4, i32 noundef 0, ptr noundef nonnull @.str.30) #17
  tail call void @exit_nicely(i32 noundef 1) #18
  unreachable

15:                                               ; preds = %2
  %16 = getelementptr inbounds nuw i8, ptr %5, i64 8
  %17 = load i64, ptr %16, align 8
  %18 = add i64 %17, 1
  store i64 %18, ptr %16, align 8
  call void @llvm.lifetime.end.p0(i64 1, ptr nonnull %3) #17
  ret i32 1
}